target datalayout = "e-m:e-p270:32:32-p271:32:32-p272:64:64-i64:64-i128:128-f80:128-n8:16:32:64-S128"
target triple = "x86_64-pc-linux-gnu"

; Function Attrs: nounwind uwtable
define i32 @nghttp2_check_header_name(ptr noundef %0, i64 noundef %1) #0 {
  %3 = alloca i32, align 4
  %4 = alloca ptr, align 8
  %5 = alloca i64, align 8
  %6 = alloca ptr, align 8
  %7 = alloca i32, align 4
  store ptr %0, ptr %4, align 8, !tbaa !3
  store i64 %1, ptr %5, align 8, !tbaa !12
  call void @llvm.lifetime.start.p0(i64 8, ptr %6) #5
  %8 = load i64, ptr %5, align 8, !tbaa !12
  %9 = icmp eq i64 %8, 0
  br i1 %9, label %10, label %11

10:                                               ; preds = %2
  store i32 0, ptr %3, align 4
  store i32 1, ptr %7, align 4
  br label %46

11:                                               ; preds = %2
  %12 = load ptr, ptr %4, align 8, !tbaa !3
  %13 = load i8, ptr %12, align 1, !tbaa !14
  %14 = zext i8 %13 to i32
  %15 = icmp eq i32 %14, 58
  br i1 %15, label %16, label %25

16:                                               ; preds = %11
  %17 = load i64, ptr %5, align 8, !tbaa !12
  %18 = icmp eq i64 %17, 1
  br i1 %18, label %19, label %20

19:                                               ; preds = %16
  store i32 0, ptr %3, align 4
  store i32 1, ptr %7, align 4
  br label %46

20:                                               ; preds = %16
  %21 = load ptr, ptr %4, align 8, !tbaa !3
  %22 = getelementptr inbounds nuw i8, ptr %21, i32 1
  store ptr %22, ptr %4, align 8, !tbaa !3
  %23 = load i64, ptr %5, align 8, !tbaa !12
  %24 = add i64 %23, -1
  store i64 %24, ptr %5, align 8, !tbaa !12
  br label %25

25:                                               ; preds = %20, %11
  %26 = load ptr, ptr %4, align 8, !tbaa !3
  %27 = load i64, ptr %5, align 8, !tbaa !12
  %28 = getelementptr inbounds nuw i8, ptr %26, i64 %27
  store ptr %28, ptr %6, align 8, !tbaa !3
  br label %29

29:                                               ; preds = %42, %25
  %30 = load ptr, ptr %4, align 8, !tbaa !3
  %31 = load ptr, ptr %6, align 8, !tbaa !3
  %32 = icmp ne ptr %30, %31
  br i1 %32, label %33, label %45

33:                                               ; preds = %29
  %34 = load ptr, ptr %4, align 8, !tbaa !3
  %35 = load i8, ptr %34, align 1, !tbaa !14
  %36 = zext i8 %35 to i64
  %37 = getelementptr inbounds nuw [256 x i32], ptr @VALID_HD_NAME_CHARS, i64 0, i64 %36
  %38 = load i32, ptr %37, align 4, !tbaa !10
  %39 = icmp ne i32 %38, 0
  br i1 %39, label %41, label %40

40:                                               ; preds = %33
  store i32 0, ptr %3, align 4
  store i32 1, ptr %7, align 4
  br label %46

41:                                               ; preds = %33
  br label %42

42:                                               ; preds = %41
  %43 = load ptr, ptr %4, align 8, !tbaa !3
  %44 = getelementptr inbounds nuw i8, ptr %43, i32 1
  store ptr %44, ptr %4, align 8, !tbaa !3
  br label %29, !llvm.loop !19

45:                                               ; preds = %29
  store i32 1, ptr %3, align 4
  store i32 1, ptr %7, align 4
  br label %46

46:                                               ; preds = %45, %40, %19, %10
  call void @llvm.lifetime.end.p0(i64 8, ptr %6) #5
  %47 = load i32, ptr %3, align 4
  ret i32 %47
}