; Function Attrs: nofree norecurse nosync nounwind memory(argmem: read) uwtable
define range(i32 0, 2) i32 @nghttp2_check_header_name(ptr noundef readonly %0, i64 noundef %1) local_unnamed_addr #8 {
  %3 = icmp eq i64 %1, 0
  br i1 %3, label %.loopexit, label %4

4:                                                ; preds = %2
  %5 = load i8, ptr %0, align 1, !tbaa !3
  %6 = icmp eq i8 %5, 58
  br i1 %6, label %7, label %.lr.ph.preheader

7:                                                ; preds = %4
  %8 = icmp eq i64 %1, 1
  br i1 %8, label %.loopexit, label %9

9:                                                ; preds = %7
  %10 = getelementptr inbounds nuw i8, ptr %0, i64 1
  %11 = add i64 %1, -1
  br label %.lr.ph.preheader

.lr.ph.preheader:                                 ; preds = %4, %9
  %.012 = phi ptr [ %10, %9 ], [ %0, %4 ]
  %.011 = phi i64 [ %11, %9 ], [ %1, %4 ]
  %12 = getelementptr inbounds nuw i8, ptr %.012, i64 %.011
  br label %.lr.ph

13:                                               ; preds = %.lr.ph
  %14 = getelementptr inbounds nuw i8, ptr %.116, i64 1
  %.not = icmp eq ptr %14, %12
  br i1 %.not, label %.loopexit, label %.lr.ph, !llvm.loop !10

.lr.ph:                                           ; preds = %.lr.ph.preheader, %13
  %.116 = phi ptr [ %14, %13 ], [ %.012, %.lr.ph.preheader ]
  %15 = load i8, ptr %.116, align 1, !tbaa !3
  %16 = zext i8 %15 to i64
  %17 = getelementptr inbounds nuw [256 x i32], ptr @VALID_HD_NAME_CHARS, i64 0, i64 %16
  %18 = load i32, ptr %17, align 4, !tbaa !8
  %.not14 = icmp eq i32 %18, 0
  br i1 %.not14, label %.loopexit, label %13

.loopexit:                                        ; preds = %.lr.ph, %13, %7, %2
  %.0 = phi i32 [ 0, %2 ], [ 0, %7 ], [ 0, %.lr.ph ], [ 1, %13 ]
  ret i32 %.0
}